; Function Attrs: nounwind uwtable
define ptr @l_Lean_Server_FileWorker_handlePlainGoal(ptr noundef %0, ptr noundef %1, ptr noundef %2) #0 {
  %4 = tail call ptr @l_Lean_Server_FileWorker_getInteractiveGoals(ptr noundef %0, ptr noundef %1, ptr noundef %2)
  %.val = load i32, ptr %4, align 4, !tbaa !4
  %5 = icmp eq i32 %.val, 1
  %6 = getelementptr inbounds nuw i8, ptr %4, i64 8
  %7 = load ptr, ptr %6, align 8, !tbaa !10
  br i1 %5, label %8, label %15

8:                                                ; preds = %3
  %9 = load ptr, ptr @l_Lean_Server_FileWorker_handlePlainGoal___closed__3, align 8, !tbaa !10
  %10 = load ptr, ptr @l_Task_Priority_default, align 8, !tbaa !10
  %11 = ptrtoint ptr %10 to i64
  %12 = lshr i64 %11, 1
  %13 = trunc i64 %12 to i32
  %14 = tail call ptr @lean_task_map_core(ptr noundef %9, ptr noundef %7, i32 noundef %13, i1 noundef zeroext true, i1 noundef zeroext false) #8
  store ptr %14, ptr %6, align 8, !tbaa !10
  br label %55

15:                                               ; preds = %3
  %16 = getelementptr inbounds nuw i8, ptr %4, i64 16
  %17 = load ptr, ptr %16, align 8, !tbaa !10
  %18 = ptrtoint ptr %17 to i64
  %19 = and i64 %18, 1
  %.not = icmp eq i64 %19, 0
  br i1 %.not, label %20, label %lean_inc.exit27

20:                                               ; preds = %15
  %.val.i = load i32, ptr %17, align 4, !tbaa !4
  %21 = icmp sgt i32 %.val.i, 0
  br i1 %21, label %22, label %24, !prof !9

22:                                               ; preds = %20
  %23 = add nuw i32 %.val.i, 1
  store i32 %23, ptr %17, align 4, !tbaa !4
  br label %lean_inc.exit27

24:                                               ; preds = %20
  %.not.i28 = icmp eq i32 %.val.i, 0
  br i1 %.not.i28, label %lean_inc.exit27, label %25

25:                                               ; preds = %24
  tail call void @lean_inc_ref_cold(ptr noundef nonnull %17) #8
  br label %lean_inc.exit27

lean_inc.exit27:                                  ; preds = %25, %24, %22, %15
  %26 = ptrtoint ptr %7 to i64
  %27 = and i64 %26, 1
  %.not32 = icmp eq i64 %27, 0
  br i1 %.not32, label %28, label %lean_inc.exit

28:                                               ; preds = %lean_inc.exit27
  %.val.i29 = load i32, ptr %7, align 4, !tbaa !4
  %29 = icmp sgt i32 %.val.i29, 0
  br i1 %29, label %30, label %32, !prof !9

30:                                               ; preds = %28
  %31 = add nuw i32 %.val.i29, 1
  store i32 %31, ptr %7, align 4, !tbaa !4
  br label %lean_inc.exit

32:                                               ; preds = %28
  %.not.i30 = icmp eq i32 %.val.i29, 0
  br i1 %.not.i30, label %lean_inc.exit, label %33

33:                                               ; preds = %32
  tail call void @lean_inc_ref_cold(ptr noundef nonnull %7) #8
  br label %lean_inc.exit

lean_inc.exit:                                    ; preds = %33, %32, %30, %lean_inc.exit27
  %34 = ptrtoint ptr %4 to i64
  %35 = and i64 %34, 1
  %.not33 = icmp eq i64 %35, 0
  br i1 %.not33, label %36, label %lean_dec.exit

36:                                               ; preds = %lean_inc.exit
  %37 = load i32, ptr %4, align 4, !tbaa !4
  %38 = icmp sgt i32 %37, 1
  br i1 %38, label %39, label %41, !prof !9

39:                                               ; preds = %36
  %40 = add nsw i32 %37, -1
  store i32 %40, ptr %4, align 4, !tbaa !4
  br label %lean_dec.exit

41:                                               ; preds = %36
  %.not.i = icmp eq i32 %37, 0
  br i1 %.not.i, label %lean_dec.exit, label %42

42:                                               ; preds = %41
  tail call void @lean_dec_ref_cold(ptr noundef nonnull %4) #8
  br label %lean_dec.exit

lean_dec.exit:                                    ; preds = %42, %41, %39, %lean_inc.exit
  %43 = load ptr, ptr @l_Lean_Server_FileWorker_handlePlainGoal___closed__3, align 8, !tbaa !10
  %44 = load ptr, ptr @l_Task_Priority_default, align 8, !tbaa !10
  %45 = ptrtoint ptr %44 to i64
  %46 = lshr i64 %45, 1
  %47 = trunc i64 %46 to i32
  %48 = tail call ptr @lean_task_map_core(ptr noundef %43, ptr noundef %7, i32 noundef %47, i1 noundef zeroext true, i1 noundef zeroext false) #8
  tail call void @lean_inc_heartbeat() #8
  %49 = tail call noalias ptr @mi_malloc_small(i64 noundef 24) #8
  %50 = icmp eq ptr %49, null
  br i1 %50, label %51, label %lean_alloc_ctor.exit

51:                                               ; preds = %lean_dec.exit
  tail call void @lean_internal_panic_out_of_memory() #9
  unreachable

lean_alloc_ctor.exit:                             ; preds = %lean_dec.exit
  %52 = getelementptr inbounds nuw i8, ptr %49, i64 4
  store i32 1, ptr %49, align 4, !tbaa !4
  store i32 131096, ptr %52, align 4
  %53 = getelementptr inbounds nuw i8, ptr %49, i64 8
  store ptr %48, ptr %53, align 8, !tbaa !10
  %54 = getelementptr inbounds nuw i8, ptr %49, i64 16
  store ptr %17, ptr %54, align 8, !tbaa !10
  br label %55

55:                                               ; preds = %lean_alloc_ctor.exit, %8
  %.0 = phi ptr [ %4, %8 ], [ %49, %lean_alloc_ctor.exit ]
  ret ptr %.0
}